; Function Attrs: mustprogress nounwind uwtable
define void @_ZN6icu_7718RelativeDateFormatD2Ev(ptr noundef nonnull align 8 dereferenceable(456) initializes((0, 8)) %0) unnamed_addr #8 align 2 personality ptr @__gxx_personality_v0 {
  store ptr getelementptr inbounds nuw inrange(-16, 272) (i8, ptr @_ZTVN6icu_7718RelativeDateFormatE, i64 16), ptr %0, align 8, !tbaa !3
  %2 = getelementptr inbounds nuw i8, ptr %0, i64 48
  %3 = load ptr, ptr %2, align 8, !tbaa !6
  %4 = icmp eq ptr %3, null
  br i1 %4, label %9, label %5

5:                                                ; preds = %1
  %6 = load ptr, ptr %3, align 8, !tbaa !3
  %7 = getelementptr inbounds nuw i8, ptr %6, i64 8
  %8 = load ptr, ptr %7, align 8
  tail call void %8(ptr noundef nonnull align 8 dereferenceable(528) %3) #15
  br label %9

9:                                                ; preds = %5, %1
  %10 = getelementptr inbounds nuw i8, ptr %0, i64 184
  %11 = load ptr, ptr %10, align 8, !tbaa !28
  %12 = icmp eq ptr %11, null
  br i1 %12, label %14, label %13

13:                                               ; preds = %9
  tail call void @_ZN6icu_7715SimpleFormatterD1Ev(ptr noundef nonnull align 8 dereferenceable(72) %11) #15
  tail call void @_ZN6icu_777UMemorydlEPv(ptr noundef nonnull %11) #15
  br label %14

14:                                               ; preds = %13, %9
  %15 = getelementptr inbounds nuw i8, ptr %0, i64 432
  %16 = load ptr, ptr %15, align 8, !tbaa !31
  invoke void @uprv_free_77(ptr noundef %16)
          to label %17 unwind label %29

17:                                               ; preds = %14
  %18 = getelementptr inbounds nuw i8, ptr %0, i64 448
  %19 = load ptr, ptr %18, align 8, !tbaa !36
  %20 = icmp eq ptr %19, null
  br i1 %20, label %25, label %21

21:                                               ; preds = %17
  %22 = load ptr, ptr %19, align 8, !tbaa !3
  %23 = getelementptr inbounds nuw i8, ptr %22, i64 8
  %24 = load ptr, ptr %23, align 8
  tail call void %24(ptr noundef nonnull align 8 dereferenceable(32) %19) #15
  br label %25

25:                                               ; preds = %21, %17
  %26 = getelementptr inbounds nuw i8, ptr %0, i64 200
  tail call void @_ZN6icu_776LocaleD1Ev(ptr noundef nonnull align 8 dereferenceable(217) %26) #15
  %27 = getelementptr inbounds nuw i8, ptr %0, i64 120
  tail call void @_ZN6icu_7713UnicodeStringD1Ev(ptr noundef nonnull align 8 dereferenceable(64) %27) #15
  %28 = getelementptr inbounds nuw i8, ptr %0, i64 56
  tail call void @_ZN6icu_7713UnicodeStringD1Ev(ptr noundef nonnull align 8 dereferenceable(64) %28) #15
  tail call void @_ZN6icu_7710DateFormatD2Ev(ptr noundef nonnull align 8 dereferenceable(48) %0) #15
  ret void

29:                                               ; preds = %14
  %30 = landingpad { ptr, i32 }
          catch ptr null
  %31 = extractvalue { ptr, i32 } %30, 0
  tail call void @__clang_call_terminate(ptr %31) #17
  unreachable
}